; Function Attrs: mustprogress nofree norecurse nosync nounwind willreturn memory(argmem: readwrite) uwtable
define dso_local void @_ZN27cmGeneratorExpressionParserC2ESt6vectorI26cmGeneratorExpressionTokenSaIS1_EE(ptr nocapture noundef nonnull writeonly align 8 dereferenceable(36) %0, ptr nocapture noundef %1) unnamed_addr #0 align 2 {
  store ptr null, ptr %0, align 8
  %3 = getelementptr inbounds i8, ptr %0, i64 8
  %4 = load ptr, ptr %1, align 8
  store ptr %4, ptr %3, align 8
  %5 = getelementptr inbounds i8, ptr %0, i64 16
  %6 = getelementptr inbounds i8, ptr %1, i64 8
  %7 = load ptr, ptr %6, align 8
  store ptr %7, ptr %5, align 8
  %8 = getelementptr inbounds i8, ptr %0, i64 24
  %9 = getelementptr inbounds i8, ptr %1, i64 16
  %10 = load ptr, ptr %9, align 8
  store ptr %10, ptr %8, align 8
  tail call void @llvm.memset.p0.i64(ptr noundef nonnull align 8 dereferenceable(24) %1, i8 0, i64 24, i1 false)
  %11 = getelementptr inbounds i8, ptr %0, i64 32
  store i32 0, ptr %11, align 8
  ret void
}